target datalayout = "e-m:e-p270:32:32-p271:32:32-p272:64:64-i64:64-i128:128-f80:128-n8:16:32:64-S128"
target triple = "x86_64-pc-linux-gnu"

; Function Attrs: nounwind uwtable
define i64 @_testfunc_q_bhilfdq(i8 noundef signext %0, i16 noundef signext %1, i32 noundef %2, i64 noundef %3, float noundef %4, double noundef %5, i64 noundef %6) #0 {
  %8 = alloca i8, align 1
  %9 = alloca i16, align 2
  %10 = alloca i32, align 4
  %11 = alloca i64, align 8
  %12 = alloca float, align 4
  %13 = alloca double, align 8
  %14 = alloca i64, align 8
  store i8 %0, ptr %8, align 1, !tbaa !20
  store i16 %1, ptr %9, align 2, !tbaa !54
  store i32 %2, ptr %10, align 4, !tbaa !3
  store i64 %3, ptr %11, align 8, !tbaa !35
  store float %4, ptr %12, align 4, !tbaa !23
  store double %5, ptr %13, align 8, !tbaa !9
  store i64 %6, ptr %14, align 8, !tbaa !60
  %15 = load i8, ptr %8, align 1, !tbaa !20
  %16 = sext i8 %15 to i32
  %17 = load i16, ptr %9, align 2, !tbaa !54
  %18 = sext i16 %17 to i32
  %19 = add i32 %16, %18
  %20 = load i32, ptr %10, align 4, !tbaa !3
  %21 = add i32 %19, %20
  %22 = sext i32 %21 to i64
  %23 = load i64, ptr %11, align 8, !tbaa !35
  %24 = add i64 %22, %23
  %25 = sitofp i64 %24 to float
  %26 = load float, ptr %12, align 4, !tbaa !23
  %27 = fadd float %25, %26
  %28 = fpext float %27 to double
  %29 = load double, ptr %13, align 8, !tbaa !9
  %30 = fadd double %28, %29
  %31 = load i64, ptr %14, align 8, !tbaa !60
  %32 = sitofp i64 %31 to double
  %33 = fadd double %30, %32
  %34 = fptosi double %33 to i64
  ret i64 %34
}