; Function Attrs: mustprogress nofree norecurse nosync nounwind willreturn memory(none) uwtable
define i64 @_testfunc_q_bhilfdq(i8 noundef signext %0, i16 noundef signext %1, i32 noundef %2, i64 noundef %3, float noundef %4, double noundef %5, i64 noundef %6) local_unnamed_addr #10 {
  %8 = sext i8 %0 to i32
  %9 = sext i16 %1 to i32
  %10 = add nsw i32 %9, %8
  %11 = add i32 %10, %2
  %12 = sext i32 %11 to i64
  %13 = add i64 %3, %12
  %14 = sitofp i64 %13 to float
  %15 = fadd float %4, %14
  %16 = fpext float %15 to double
  %17 = fadd double %5, %16
  %18 = sitofp i64 %6 to double
  %19 = fadd double %17, %18
  %20 = fptosi double %19 to i64
  ret i64 %20
}